; Function Attrs: mustprogress nounwind uwtable
define hidden void @_ZN14XPageAllocator13decrease_usedEmb(ptr noundef nonnull align 8 dereferenceable(609) %0, i64 noundef %1, i1 noundef zeroext %2) local_unnamed_addr #1 align 2 {
  br i1 %2, label %4, label %8

4:                                                ; preds = %3
  %5 = getelementptr inbounds i8, ptr %0, i64 456
  %6 = load i64, ptr %5, align 8
  %7 = add i64 %6, %1
  store i64 %7, ptr %5, align 8
  br label %8

8:                                                ; preds = %4, %3
  %9 = getelementptr inbounds i8, ptr %0, i64 432
  %10 = sub i64 0, %1
  %11 = tail call noundef i64 asm sideeffect "lock xaddq $0,($2)", "=r,0,r,~{cc},~{memory},~{dirflag},~{fpsr},~{flags}"(i64 %10, ptr nonnull %9) #14, !srcloc !6
  %12 = sub i64 %11, %1
  %13 = getelementptr inbounds i8, ptr %0, i64 448
  %14 = load i64, ptr %13, align 8
  %15 = icmp ult i64 %12, %14
  br i1 %15, label %16, label %17

16:                                               ; preds = %8
  store i64 %12, ptr %13, align 8
  br label %17

17:                                               ; preds = %16, %8
  ret void
}